; Function Attrs: mustprogress uwtable
define hidden void @_ZN3sls12bv_valuation9set_valueERNS_5bvectERK8rational(ptr noundef nonnull readonly align 8 captures(none) dereferenceable(184) %0, ptr noundef nonnull readonly align 8 captures(none) dereferenceable(20) %1, ptr noundef nonnull align 8 dereferenceable(32) %2) local_unnamed_addr #3 align 2 {
  %4 = getelementptr inbounds nuw i8, ptr %0, i64 152
  %5 = load i32, ptr %4, align 8, !tbaa !67
  %.not = icmp eq i32 %5, 0
  br i1 %.not, label %.._crit_edge_crit_edge, label %.lr.ph

.._crit_edge_crit_edge:                           ; preds = %3
  %.pre = load ptr, ptr %1, align 8, !tbaa !14
  br label %._crit_edge

._crit_edge:                                      ; preds = %.lr.ph, %.._crit_edge_crit_edge
  %6 = phi ptr [ %.pre, %.._crit_edge_crit_edge ], [ %19, %.lr.ph ]
  %7 = getelementptr inbounds nuw i8, ptr %0, i64 148
  %8 = load i32, ptr %7, align 4, !tbaa !69
  %9 = getelementptr inbounds nuw i8, ptr %0, i64 156
  %10 = load i32, ptr %9, align 4, !tbaa !68
  %11 = add i32 %10, -1
  %12 = zext i32 %11 to i64
  %13 = getelementptr inbounds nuw i32, ptr %6, i64 %12
  %14 = load i32, ptr %13, align 4, !tbaa !15
  %15 = and i32 %14, %8
  store i32 %15, ptr %13, align 4, !tbaa !15
  ret void

.lr.ph:                                           ; preds = %3, %.lr.ph
  %.07 = phi i32 [ %28, %.lr.ph ], [ 0, %3 ]
  %16 = load ptr, ptr @_ZN8rational13g_mpq_managerE, align 8, !tbaa !56
  %17 = tail call noundef zeroext i1 @_ZN11mpz_managerILb1EE7get_bitERK3mpzj(ptr noundef nonnull align 8 dereferenceable(728) %16, ptr noundef nonnull align 8 dereferenceable(32) %2, i32 noundef %.07)
  %.neg.i = sext i1 %17 to i32
  %18 = lshr i32 %.07, 5
  %19 = load ptr, ptr %1, align 8, !tbaa !14
  %20 = zext nneg i32 %18 to i64
  %21 = getelementptr inbounds nuw i32, ptr %19, i64 %20
  %22 = load i32, ptr %21, align 4, !tbaa !15
  %23 = xor i32 %22, %.neg.i
  %24 = and i32 %.07, 31
  %25 = shl nuw i32 1, %24
  %26 = and i32 %23, %25
  %27 = xor i32 %26, %22
  store i32 %27, ptr %21, align 4, !tbaa !15
  %28 = add nuw i32 %.07, 1
  %29 = load i32, ptr %4, align 8, !tbaa !67
  %30 = icmp ult i32 %28, %29
  br i1 %30, label %.lr.ph, label %._crit_edge, !llvm.loop !112
}